ccopy_reg
_reconstructor
p0
(cpandas.core.frame
DataFrame
p1
c__builtin__
object
p2
Ntp3
Rp4
(dp5
S'_metadata'
p6
(lp7
sS'_typ'
p8
S'dataframe'
p9
sS'_data'
p10
g0
(cpandas.core.internals
BlockManager
p11
g2
Ntp12
Rp13
((lp14
cpandas.core.indexes.base
_new_Index
p15
(cpandas.core.indexes.base
Index
p16
(dp17
S'data'
p18
cnumpy.core.multiarray
_reconstruct
p19
(cnumpy
ndarray
p20
(I0
tp21
S'b'
p22
tp23
Rp24
(I1
(I5
tp25
cnumpy
dtype
p26
(S'O8'
p27
I0
I1
tp28
Rp29
(I3
S'|'
p30
NNNI-1
I-1
I63
tp31
bI00
(lp32
S'counts'
p33
aS'dates'
p34
aS'r1counts'
p35
aS'r2counts'
p36
aS'r3counts'
p37
atp38
bsS'name'
p39
Nstp40
Rp41
ag15
(cpandas.core.indexes.range
RangeIndex
p42
(dp43
S'start'
p44
I0
sS'step'
p45
I1
sS'stop'
p46
I1
sg39
Nstp47
Rp48
a(lp49
g19
(g20
(I0
tp50
g22
tp51
Rp52
(I1
(I4
I1
tp53
g26
(S'i8'
p54
I0
I1
tp55
Rp56
(I3
S'<'
p57
NNNI-1
I-1
I0
tp58
bI00
S'\x17\x03\x00\x00\x00\x00\x00\x00\xf6\xeb\x04\x00\x00\x00\x00\x00a2\x01\x00\x00\x00\x00\x00\xf0k\x00\x00\x00\x00\x00\x00'
p59
tp60
bag19
(g20
(I0
tp61
g22
tp62
Rp63
(I1
(I1
I1
tp64
g29
I00
(lp65
cdatetime
date
p66
(S'\x07\xe2\x03\x1b'
p67
tp68
Rp69
atp70
ba(lp71
g15
(g16
(dp72
g18
g19
(g20
(I0
tp73
g22
tp74
Rp75
(I1
(I4
tp76
g29
I00
(lp77
g33
ag35
ag36
ag37
atp78
bsg39
Nstp79
Rp80
ag15
(g16
(dp81
g18
g19
(g20
(I0
tp82
g22
tp83
Rp84
(I1
(I1
tp85
g29
I00
(lp86
g34
atp87
bsg39
Nstp88
Rp89
a(dp90
S'0.14.1'
p91
(dp92
S'axes'
p93
g14
sS'blocks'
p94
(lp95
(dp96
S'mgr_locs'
p97
g19
(g20
(I0
tp98
g22
tp99
Rp100
(I1
(I4
tp101
g56
I00
S'\x00\x00\x00\x00\x00\x00\x00\x00\x02\x00\x00\x00\x00\x00\x00\x00\x03\x00\x00\x00\x00\x00\x00\x00\x04\x00\x00\x00\x00\x00\x00\x00'
p102
tp103
bsS'values'
p104
g52
sa(dp105
g97
c__builtin__
slice
p106
(I1
I2
I1
tp107
Rp108
sg104
g63
sasstp109
bsb.